; Function Attrs: mustprogress uwtable
define void @_ZN2cv6detail8tracking12computeTwistERKNS_3MatES4_S4_S4_(ptr dead_on_unwind noalias writable sret(%"class.cv::Vec.0") align 8 %0, ptr nocapture noundef nonnull readonly align 8 dereferenceable(96) %1, ptr noundef nonnull align 8 dereferenceable(96) %2, ptr nocapture noundef nonnull readonly align 8 dereferenceable(96) %3, ptr noundef nonnull align 8 dereferenceable(96) %4) local_unnamed_addr #3 personality ptr @__gxx_personality_v0 {
  %6 = alloca %"class.std::__cxx11::basic_string", align 8
  %7 = alloca %"class.std::allocator", align 1
  %8 = alloca %"class.cv::Mat", align 8
  %9 = alloca %"class.cv::Mat", align 8
  %10 = alloca %"class.cv::_InputArray", align 8
  %11 = alloca %"class.cv::_OutputArray", align 8
  %12 = alloca %"class.cv::Mat", align 8
  %13 = alloca %"class.cv::MatExpr", align 8
  %14 = getelementptr inbounds i8, ptr %1, i64 12
  %15 = load i32, ptr %14, align 4
  %16 = shl nsw i32 %15, 1
  %17 = getelementptr inbounds i8, ptr %2, i64 8
  %18 = load i32, ptr %17, align 8
  %19 = icmp eq i32 %16, %18
  br i1 %19, label %28, label %20

20:                                               ; preds = %5
  call void @_ZNSaIcEC1Ev(ptr noundef nonnull align 1 dereferenceable(1) %7) #9
  invoke void @_ZNSt7__cxx1112basic_stringIcSt11char_traitsIcESaIcEEC1EPKcRKS3_(ptr noundef nonnull align 8 dereferenceable(32) %6, ptr noundef nonnull @.str.4, ptr noundef nonnull align 1 dereferenceable(1) %7)
          to label %21 unwind label %23

21:                                               ; preds = %20
  invoke void @_ZN2cv5errorEiRKNSt7__cxx1112basic_stringIcSt11char_traitsIcESaIcEEEPKcS9_i(i32 noundef -215, ptr noundef nonnull align 8 dereferenceable(32) %6, ptr noundef nonnull @__func__._ZN2cv6detail8tracking12computeTwistERKNS_3MatES4_S4_S4_, ptr noundef nonnull @.str.1, i32 noundef 64) #10
          to label %22 unwind label %25

22:                                               ; preds = %21
  unreachable

23:                                               ; preds = %20
  %24 = landingpad { ptr, i32 }
          cleanup
  br label %27

25:                                               ; preds = %21
  %26 = landingpad { ptr, i32 }
          cleanup
  call void @_ZNSt7__cxx1112basic_stringIcSt11char_traitsIcESaIcEED1Ev(ptr noundef nonnull align 8 dereferenceable(32) %6) #9
  br label %27

27:                                               ; preds = %25, %23
  %.pn = phi { ptr, i32 } [ %26, %25 ], [ %24, %23 ]
  call void @_ZNSaIcED1Ev(ptr noundef nonnull align 1 dereferenceable(1) %7) #9
  br label %57

28:                                               ; preds = %5
  call void @_ZN2cv3MatC1Ev(ptr noundef nonnull align 8 dereferenceable(96) %8) #9
  invoke void @_ZN2cv6detail8tracking24computeInteractionMatrixERKNS_3MatES4_S4_RS2_(ptr noundef nonnull align 8 dereferenceable(96) %1, ptr noundef nonnull align 8 dereferenceable(96) %3, ptr noundef nonnull align 8 dereferenceable(96) %4, ptr noundef nonnull align 8 dereferenceable(96) %8)
          to label %29 unwind label %47

29:                                               ; preds = %28
  call void @_ZN2cv3MatC1Ev(ptr noundef nonnull align 8 dereferenceable(96) %9) #9
  %30 = getelementptr inbounds i8, ptr %10, i64 16
  store i32 0, ptr %30, align 8
  %31 = getelementptr inbounds i8, ptr %10, i64 20
  store i32 0, ptr %31, align 4
  store i32 16842752, ptr %10, align 8
  %32 = getelementptr inbounds i8, ptr %10, i64 8
  store ptr %8, ptr %32, align 8
  %33 = getelementptr inbounds i8, ptr %11, i64 8
  %34 = getelementptr inbounds i8, ptr %11, i64 16
  store i64 0, ptr %34, align 8
  store i32 33619968, ptr %11, align 8
  store ptr %9, ptr %33, align 8
  %35 = invoke noundef double @_ZN2cv6invertERKNS_11_InputArrayERKNS_12_OutputArrayEi(ptr noundef nonnull align 8 dereferenceable(24) %10, ptr noundef nonnull align 8 dereferenceable(24) %11, i32 noundef 1)
          to label %36 unwind label %51

36:                                               ; preds = %29
  invoke void @_ZN2cvmlERKNS_3MatES2_(ptr dead_on_unwind nonnull writable sret(%"class.cv::MatExpr") align 8 %13, ptr noundef nonnull align 8 dereferenceable(96) %9, ptr noundef nonnull align 8 dereferenceable(96) %2)
          to label %37 unwind label %49

37:                                               ; preds = %36
  call void @_ZN2cv3MatC1Ev(ptr noundef nonnull align 8 dereferenceable(96) %12) #9
  %38 = load ptr, ptr %13, align 8, !noalias !6
  %39 = load ptr, ptr %38, align 8
  %40 = getelementptr inbounds i8, ptr %39, i64 24
  %41 = load ptr, ptr %40, align 8
  invoke void %41(ptr noundef nonnull align 8 dereferenceable(8) %38, ptr noundef nonnull align 8 dereferenceable(352) %13, ptr noundef nonnull align 8 dereferenceable(96) %12, i32 noundef -1)
          to label %_ZNK2cv7MatExprcvNS_3MatEEv.exit unwind label %.body

.body:                                            ; preds = %37
  %42 = landingpad { ptr, i32 }
          cleanup
  call void @_ZN2cv3MatD1Ev(ptr noundef nonnull align 8 dereferenceable(96) %12) #9
  call void @_ZN2cv7MatExprD2Ev(ptr noundef nonnull align 8 dereferenceable(352) %13) #9
  br label %55

_ZNK2cv7MatExprcvNS_3MatEEv.exit:                 ; preds = %37
  %43 = getelementptr inbounds i8, ptr %13, i64 208
  call void @_ZN2cv3MatD1Ev(ptr noundef nonnull align 8 dereferenceable(96) %43) #9
  %44 = getelementptr inbounds i8, ptr %13, i64 112
  call void @_ZN2cv3MatD1Ev(ptr noundef nonnull align 8 dereferenceable(96) %44) #9
  %45 = getelementptr inbounds i8, ptr %13, i64 16
  call void @_ZN2cv3MatD1Ev(ptr noundef nonnull align 8 dereferenceable(96) %45) #9
  invoke void @_ZNK2cv3MatcvNS_3VecIT_XT0_EEEIdLi6EEEv(ptr dead_on_unwind writable sret(%"class.cv::Vec.0") align 8 %0, ptr noundef nonnull align 8 dereferenceable(96) %12)
          to label %46 unwind label %53

46:                                               ; preds = %_ZNK2cv7MatExprcvNS_3MatEEv.exit
  call void @_ZN2cv3MatD1Ev(ptr noundef nonnull align 8 dereferenceable(96) %12) #9
  call void @_ZN2cv3MatD1Ev(ptr noundef nonnull align 8 dereferenceable(96) %9) #9
  call void @_ZN2cv3MatD1Ev(ptr noundef nonnull align 8 dereferenceable(96) %8) #9
  ret void

47:                                               ; preds = %28
  %48 = landingpad { ptr, i32 }
          cleanup
  br label %56

49:                                               ; preds = %36
  %50 = landingpad { ptr, i32 }
          cleanup
  br label %55

51:                                               ; preds = %29
  %52 = landingpad { ptr, i32 }
          cleanup
  br label %55

53:                                               ; preds = %_ZNK2cv7MatExprcvNS_3MatEEv.exit
  %54 = landingpad { ptr, i32 }
          cleanup
  call void @_ZN2cv3MatD1Ev(ptr noundef nonnull align 8 dereferenceable(96) %12) #9
  br label %55

55:                                               ; preds = %51, %53, %.body, %49
  %.pn15 = phi { ptr, i32 } [ %54, %53 ], [ %42, %.body ], [ %50, %49 ], [ %52, %51 ]
  call void @_ZN2cv3MatD1Ev(ptr noundef nonnull align 8 dereferenceable(96) %9) #9
  br label %56

56:                                               ; preds = %55, %47
  %.pn15.pn = phi { ptr, i32 } [ %.pn15, %55 ], [ %48, %47 ]
  call void @_ZN2cv3MatD1Ev(ptr noundef nonnull align 8 dereferenceable(96) %8) #9
  br label %57

57:                                               ; preds = %56, %27
  %.pn15.pn.pn = phi { ptr, i32 } [ %.pn15.pn, %56 ], [ %.pn, %27 ]
  resume { ptr, i32 } %.pn15.pn.pn
}